Certificate:
    Data:
        Version: 3 (0x2)
        Serial Number: 11456958151166398442 (0x9eff4abca6ca0fea)
    Signature Algorithm: sha256WithRSAEncryption
        Issuer: C=cn, ST=liaoning, O=wsmca, OU=dev, CN=ca.wsmtec.com/emailAddress=weiwei@wsmtec.com
        Validity
            Not Before: Oct 16 03:14:46 2017 GMT
            Not After : Oct 16 03:14:46 2019 GMT
        Subject: C=cn, ST=china, O=xianhuahua, OU=xianhuahua, CN=xianhuahua
        Subject Public Key Info:
            Public Key Algorithm: rsaEncryption
                Public-Key: (1024 bit)
                Modulus:
                    00:c8:94:95:3e:c5:6d:53:94:65:e3:42:0e:2b:f4:
                    c2:0e:8b:6a:80:22:09:f7:d2:48:0c:e3:c3:b7:4d:
                    4b:77:24:2f:07:33:6b:e5:86:cc:54:77:16:2a:d0:
                    08:c0:17:73:59:5f:1d:a0:7e:19:f5:62:e2:60:fa:
                    ab:75:f3:39:cb:9c:08:40:6e:e1:eb:4d:65:30:9f:
                    88:34:9b:92:e5:36:50:22:d5:4f:2f:2c:4f:41:42:
                    cb:c3:14:58:e6:91:03:96:5a:99:f4:d6:57:8b:68:
                    55:cf:12:65:5b:bb:19:3c:90:9d:43:83:45:92:22:
                    8b:c1:e2:90:ca:e8:5e:86:49
                Exponent: 65537 (0x10001)
        X509v3 extensions:
            X509v3 Basic Constraints: 
                CA:FALSE
            Netscape Comment: 
                OpenSSL Generated Certificate
            X509v3 Subject Key Identifier: 
                D1:B6:AA:41:9B:39:B0:C9:28:70:E3:D0:50:0B:F1:B5:E9:2D:C2:1D
            X509v3 Authority Key Identifier: 
                keyid:DD:82:AC:8E:BC:E7:48:A3:9D:78:96:D0:2A:BC:7A:7F:89:B7:0C:DE

    Signature Algorithm: sha256WithRSAEncryption
         51:1b:af:75:6e:cc:2a:ce:f1:10:08:19:f3:2a:8d:69:d0:d2:
         e4:33:e8:20:19:a7:8a:b8:65:57:4a:dc:36:e7:27:ac:22:0f:
         7b:28:4e:1b:8a:ca:15:4c:8b:ee:13:58:79:11:2d:f9:96:27:
         d6:44:e7:32:7d:1a:04:cd:62:83:df:d3:10:11:5a:cf:fe:6c:
         f4:65:c4:32:f3:4c:b6:ac:32:fe:72:54:0c:c3:63:4d:d4:80:
         95:12:f1:78:cb:d7:08:60:68:4a:dc:98:96:3a:28:bd:96:8f:
         9b:93:3c:b0:8e:78:3c:15:42:0a:b1:b6:c7:d2:99:df:3d:17:
         5a:30:39:a0:fa:a9:d2:b7:dd:5b:3c:39:eb:f6:79:04:e6:a0:
         65:cb:c4:13:3a:3e:b4:91:93:93:48:0f:4a:b6:c3:f5:c0:de:
         6d:8b:4e:08:06:fd:3a:a1:ea:5d:05:e9:9e:2b:7f:1a:ab:d1:
         3f:c8:7f:c0:8a:06:3f:33:e9:2f:8f:78:b2:52:63:a6:61:f3:
         11:bf:3d:8e:75:64:32:74:5a:54:64:c1:7e:71:82:1c:c2:77:
         4a:37:25:e7:0a:58:e0:36:7c:a5:8b:97:cc:7d:04:33:76:5a:
         bc:bb:86:52:32:16:f3:c2:de:9b:bb:3c:65:e1:60:3c:de:59:
         23:f8:5b:a7
-----BEGIN CERTIFICATE-----
MIIDTjCCAjagAwIBAgIJAJ7/Srymyg/qMA0GCSqGSIb3DQEBCwUAMHgxCzAJBgNV
BAYTAmNuMREwDwYDVQQIDAhsaWFvbmluZzEOMAwGA1UECgwFd3NtY2ExDDAKBgNV
BAsMA2RldjEWMBQGA1UEAwwNY2Eud3NtdGVjLmNvbTEgMB4GCSqGSIb3DQEJARYR
d2Vpd2VpQHdzbXRlYy5jb20wHhcNMTcxMDE2MDMxNDQ2WhcNMTkxMDE2MDMxNDQ2
WjBcMQswCQYDVQQGEwJjbjEOMAwGA1UECAwFY2hpbmExEzARBgNVBAoMCnhpYW5o
dWFodWExEzARBgNVBAsMCnhpYW5odWFodWExEzARBgNVBAMMCnhpYW5odWFodWEw
gZ8wDQYJKoZIhvcNAQEBBQADgY0AMIGJAoGBAMiUlT7FbVOUZeNCDiv0wg6LaoAi
CffSSAzjw7dNS3ckLwcza+WGzFR3FirQCMAXc1lfHaB+GfVi4mD6q3XzOcucCEBu
4etNZTCfiDSbkuU2UCLVTy8sT0FCy8MUWOaRA5ZamfTWV4toVc8SZVu7GTyQnUOD
RZIii8HikMroXoZJAgMBAAGjezB5MAkGA1UdEwQCMAAwLAYJYIZIAYb4QgENBB8W
HU9wZW5TU0wgR2VuZXJhdGVkIENlcnRpZmljYXRlMB0GA1UdDgQWBBTRtqpBmzmw
yShw49BQC/G16S3CHTAfBgNVHSMEGDAWgBTdgqyOvOdIo514ltAqvHp/ibcM3jAN
BgkqhkiG9w0BAQsFAAOCAQEAURuvdW7MKs7xEAgZ8yqNadDS5DPoIBmnirhlV0rc
NucnrCIPeyhOG4rKFUyL7hNYeREt+ZYn1kTnMn0aBM1ig9/TEBFaz/5s9GXEMvNM
tqwy/nJUDMNjTdSAlRLxeMvXCGBoStyYljoovZaPm5M8sI54PBVCCrG2x9KZ3z0X
WjA5oPqp0rfdWzw56/Z5BOagZcvEEzo+tJGTk0gPSrbD9cDebYtOCAb9OqHqXQXp
nit/GqvRP8h/wIoGPzPpL494slJjpmHzEb89jnVkMnRaVGTBfnGCHMJ3Sjcl5wpY
4DZ8pYuXzH0EM3ZavLuGUjIW88Lem7s8ZeFgPN5ZI/hbpw==
-----END CERTIFICATE-----
